target datalayout = "e-m:e-p270:32:32-p271:32:32-p272:64:64-i64:64-i128:128-f80:128-n8:16:32:64-S128"
target triple = "x86_64-pc-linux-gnu"

%struct.expert_field = type { i32, i32 }

@hf_isis_lsp_sl_binding_flags = internal global i32 0, align 4
@hf_isis_lsp_sl_binding_weight = internal global i32 0, align 4
@hf_isis_lsp_sl_binding_range = internal global i32 0, align 4
@hf_isis_lsp_sl_binding_prefix_length = internal global i32 0, align 4
@hf_isis_lsp_sl_binding_fec_prefix_ipv4 = internal global i32 0, align 4
@hf_isis_lsp_sl_binding_fec_prefix_ipv6 = internal global i32 0, align 4
@hf_isis_lsp_sl_sub_tlv = internal global i32 0, align 4
@hf_isis_lsp_sl_sub_tlv_type = internal global i32 0, align 4
@hf_isis_lsp_sl_sub_tlv_length = internal global i32 0, align 4
@hf_isis_lsp_sl_sub_tlv_label_20 = internal global i32 0, align 4
@hf_isis_lsp_sl_sub_tlv_label_32 = internal global i32 0, align 4
@hf_isis_lsp_sl_sub_tlv_flags = internal global i32 0, align 4
@hf_isis_lsp_sl_sub_tlv_algorithm = internal global i32 0, align 4
@ett_isis_lsp_sl_flags = internal global i32 0, align 4
@ett_isis_lsp_sl_sub_tlv = internal global i32 0, align 4
@ett_isis_lsp_sl_sub_tlv_flags = internal global i32 0, align 4
@ei_isis_lsp_malformed_subtlv = internal global %struct.expert_field zeroinitializer, align 4
@.str.923 = private unnamed_addr constant [42 x i8] c"Prefix address format unknown length : %d\00", align 1
@.str.924 = private unnamed_addr constant [4 x i8] c" %s\00", align 1
@.str.925 = private unnamed_addr constant [32 x i8] c"Unknown capability sub-tlv type\00", align 1
@.str.926 = private unnamed_addr constant [22 x i8] c"Label badly formatted\00", align 1
@.str.927 = private unnamed_addr constant [41 x i8] c"Sub TLV badly formatted, type unknown %d\00", align 1

; Function Attrs: null_pointer_is_valid sspstrong uwtable
define internal void @dissect_isis_lsp_clv_sid_label_binding(ptr noundef %0, ptr noundef %1, ptr noundef %2, i32 noundef %3, ptr noundef %4, i32 noundef %5) #0 {
  %7 = alloca ptr, align 8
  %8 = alloca ptr, align 8
  %9 = alloca ptr, align 8
  %10 = alloca i32, align 4
  %11 = alloca ptr, align 8
  %12 = alloca i32, align 4
  %13 = alloca ptr, align 8
  %14 = alloca ptr, align 8
  %15 = alloca i32, align 4
  %16 = alloca i32, align 4
  %17 = alloca i32, align 4
  %18 = alloca i8, align 1
  %19 = alloca i32, align 4
  %20 = alloca i32, align 4
  %21 = alloca i32, align 4
  store ptr %0, ptr %7, align 8
  store ptr %1, ptr %8, align 8
  store ptr %2, ptr %9, align 8
  store i32 %3, ptr %10, align 4
  store ptr %4, ptr %11, align 8
  store i32 %5, ptr %12, align 4
  call void @llvm.lifetime.start.p0(i64 8, ptr %13) #4
  store ptr null, ptr %13, align 8
  call void @llvm.lifetime.start.p0(i64 8, ptr %14) #4
  store ptr null, ptr %14, align 8
  call void @llvm.lifetime.start.p0(i64 4, ptr %15) #4
  store i32 0, ptr %15, align 4
  call void @llvm.lifetime.start.p0(i64 4, ptr %16) #4
  store i32 0, ptr %16, align 4
  call void @llvm.lifetime.start.p0(i64 4, ptr %17) #4
  store i32 0, ptr %17, align 4
  call void @llvm.lifetime.start.p0(i64 1, ptr %18) #4
  store i8 0, ptr %18, align 1
  call void @llvm.lifetime.start.p0(i64 4, ptr %19) #4
  call void @llvm.lifetime.start.p0(i64 4, ptr %20) #4
  %22 = load i32, ptr %12, align 4
  %23 = icmp sle i32 %22, 0
  br i1 %23, label %24, label %25

24:                                               ; preds = %6
  store i32 1, ptr %21, align 4
  br label %256

25:                                               ; preds = %6
  %26 = load i32, ptr %10, align 4
  store i32 %26, ptr %15, align 4
  %27 = load ptr, ptr %9, align 8
  %28 = load ptr, ptr %7, align 8
  %29 = load i32, ptr %15, align 4
  %30 = load i32, ptr @hf_isis_lsp_sl_binding_flags, align 4
  %31 = load i32, ptr @ett_isis_lsp_sl_flags, align 4
  %32 = call ptr @proto_tree_add_bitmask(ptr noundef %27, ptr noundef %28, i32 noundef %29, i32 noundef %30, i32 noundef %31, ptr noundef @dissect_isis_lsp_clv_sid_label_binding.lsp_sl_flags, i32 noundef 0)
  %33 = load i32, ptr %15, align 4
  %34 = add i32 %33, 1
  store i32 %34, ptr %15, align 4
  %35 = load ptr, ptr %9, align 8
  %36 = load i32, ptr @hf_isis_lsp_sl_binding_weight, align 4
  %37 = load ptr, ptr %7, align 8
  %38 = load i32, ptr %15, align 4
  %39 = call ptr @proto_tree_add_item(ptr noundef %35, i32 noundef %36, ptr noundef %37, i32 noundef %38, i32 noundef 1, i32 noundef 0)
  %40 = load i32, ptr %15, align 4
  %41 = add i32 %40, 1
  store i32 %41, ptr %15, align 4
  %42 = load ptr, ptr %9, align 8
  %43 = load i32, ptr @hf_isis_lsp_sl_binding_range, align 4
  %44 = load ptr, ptr %7, align 8
  %45 = load i32, ptr %15, align 4
  %46 = call ptr @proto_tree_add_item(ptr noundef %42, i32 noundef %43, ptr noundef %44, i32 noundef %45, i32 noundef 2, i32 noundef 0)
  %47 = load i32, ptr %15, align 4
  %48 = add i32 %47, 2
  store i32 %48, ptr %15, align 4
  %49 = load ptr, ptr %9, align 8
  %50 = load i32, ptr @hf_isis_lsp_sl_binding_prefix_length, align 4
  %51 = load ptr, ptr %7, align 8
  %52 = load i32, ptr %15, align 4
  %53 = call ptr @proto_tree_add_item(ptr noundef %49, i32 noundef %50, ptr noundef %51, i32 noundef %52, i32 noundef 1, i32 noundef 0)
  %54 = load ptr, ptr %7, align 8
  %55 = load i32, ptr %15, align 4
  %56 = call zeroext i8 @tvb_get_uint8(ptr noundef %54, i32 noundef %55)
  store i8 %56, ptr %18, align 1
  %57 = load i32, ptr %15, align 4
  %58 = add i32 %57, 1
  store i32 %58, ptr %15, align 4
  %59 = load i8, ptr %18, align 1
  %60 = zext i8 %59 to i32
  %61 = icmp eq i32 %60, 32
  br i1 %61, label %62, label %71

62:                                               ; preds = %25
  %63 = load ptr, ptr %9, align 8
  %64 = load i32, ptr @hf_isis_lsp_sl_binding_fec_prefix_ipv4, align 4
  %65 = load ptr, ptr %7, align 8
  %66 = load i32, ptr %15, align 4
  %67 = load i8, ptr %18, align 1
  %68 = zext i8 %67 to i32
  %69 = sdiv i32 %68, 8
  %70 = call ptr @proto_tree_add_item(ptr noundef %63, i32 noundef %64, ptr noundef %65, i32 noundef %66, i32 noundef %69, i32 noundef 0)
  br label %93

71:                                               ; preds = %25
  %72 = load i8, ptr %18, align 1
  %73 = zext i8 %72 to i32
  %74 = icmp eq i32 %73, 128
  br i1 %74, label %75, label %84

75:                                               ; preds = %71
  %76 = load ptr, ptr %9, align 8
  %77 = load i32, ptr @hf_isis_lsp_sl_binding_fec_prefix_ipv6, align 4
  %78 = load ptr, ptr %7, align 8
  %79 = load i32, ptr %15, align 4
  %80 = load i8, ptr %18, align 1
  %81 = zext i8 %80 to i32
  %82 = sdiv i32 %81, 8
  %83 = call ptr @proto_tree_add_item(ptr noundef %76, i32 noundef %77, ptr noundef %78, i32 noundef %79, i32 noundef %82, i32 noundef 0)
  br label %92

84:                                               ; preds = %71
  %85 = load ptr, ptr %9, align 8
  %86 = load ptr, ptr %8, align 8
  %87 = load ptr, ptr %7, align 8
  %88 = load i32, ptr %15, align 4
  %89 = load i8, ptr %18, align 1
  %90 = zext i8 %89 to i32
  %91 = call ptr (ptr, ptr, ptr, ptr, i32, i32, ptr, ...) @proto_tree_add_expert_format(ptr noundef %85, ptr noundef %86, ptr noundef @ei_isis_lsp_malformed_subtlv, ptr noundef %87, i32 noundef %88, i32 noundef -1, ptr noundef @.str.923, i32 noundef %90)
  br label %92

92:                                               ; preds = %84, %75
  br label %93

93:                                               ; preds = %92, %62
  %94 = load i32, ptr %15, align 4
  %95 = load i8, ptr %18, align 1
  %96 = zext i8 %95 to i32
  %97 = sdiv i32 %96, 8
  %98 = add i32 %94, %97
  store i32 %98, ptr %15, align 4
  %99 = load i32, ptr %12, align 4
  %100 = load i8, ptr %18, align 1
  %101 = zext i8 %100 to i32
  %102 = sdiv i32 %101, 8
  %103 = add i32 5, %102
  %104 = sub i32 %99, %103
  store i32 %104, ptr %16, align 4
  br label %105

105:                                              ; preds = %250, %93
  %106 = load i32, ptr %17, align 4
  %107 = load i32, ptr %16, align 4
  %108 = icmp slt i32 %106, %107
  br i1 %108, label %109, label %255

109:                                              ; preds = %105
  %110 = load ptr, ptr %7, align 8
  %111 = load i32, ptr %17, align 4
  %112 = load i32, ptr %15, align 4
  %113 = add i32 %111, %112
  %114 = call zeroext i8 @tvb_get_uint8(ptr noundef %110, i32 noundef %113)
  %115 = zext i8 %114 to i32
  store i32 %115, ptr %19, align 4
  %116 = load ptr, ptr %7, align 8
  %117 = load i32, ptr %17, align 4
  %118 = add i32 %117, 1
  %119 = load i32, ptr %15, align 4
  %120 = add i32 %118, %119
  %121 = call zeroext i8 @tvb_get_uint8(ptr noundef %116, i32 noundef %120)
  %122 = zext i8 %121 to i32
  store i32 %122, ptr %20, align 4
  %123 = load ptr, ptr %9, align 8
  %124 = load i32, ptr @hf_isis_lsp_sl_sub_tlv, align 4
  %125 = load ptr, ptr %7, align 8
  %126 = load i32, ptr %15, align 4
  %127 = load i32, ptr %20, align 4
  %128 = add i32 %127, 2
  %129 = call ptr @proto_tree_add_item(ptr noundef %123, i32 noundef %124, ptr noundef %125, i32 noundef %126, i32 noundef %128, i32 noundef 0)
  store ptr %129, ptr %13, align 8
  %130 = load ptr, ptr %13, align 8
  %131 = load i32, ptr %19, align 4
  %132 = call ptr @val_to_str_const(i32 noundef %131, ptr noundef @isis_lsp_sl_sub_tlv_vals, ptr noundef @.str.925)
  call void (ptr, ptr, ...) @proto_item_append_text(ptr noundef %130, ptr noundef @.str.924, ptr noundef %132)
  %133 = load ptr, ptr %13, align 8
  %134 = load i32, ptr @ett_isis_lsp_sl_sub_tlv, align 4
  %135 = call ptr @proto_item_add_subtree(ptr noundef %133, i32 noundef %134)
  store ptr %135, ptr %14, align 8
  %136 = load ptr, ptr %14, align 8
  %137 = load i32, ptr @hf_isis_lsp_sl_sub_tlv_type, align 4
  %138 = load ptr, ptr %7, align 8
  %139 = load i32, ptr %17, align 4
  %140 = load i32, ptr %15, align 4
  %141 = add i32 %139, %140
  %142 = call ptr @proto_tree_add_item(ptr noundef %136, i32 noundef %137, ptr noundef %138, i32 noundef %141, i32 noundef 1, i32 noundef 0)
  %143 = load ptr, ptr %14, align 8
  %144 = load i32, ptr @hf_isis_lsp_sl_sub_tlv_length, align 4
  %145 = load ptr, ptr %7, align 8
  %146 = load i32, ptr %17, align 4
  %147 = add i32 %146, 1
  %148 = load i32, ptr %15, align 4
  %149 = add i32 %147, %148
  %150 = call ptr @proto_tree_add_item(ptr noundef %143, i32 noundef %144, ptr noundef %145, i32 noundef %149, i32 noundef 1, i32 noundef 0)
  %151 = load i32, ptr %19, align 4
  switch i32 %151, label %240 [
    i32 1, label %152
    i32 3, label %184
  ]

152:                                              ; preds = %109
  %153 = load i32, ptr %20, align 4
  switch i32 %153, label %174 [
    i32 3, label %154
    i32 4, label %164
  ]

154:                                              ; preds = %152
  %155 = load ptr, ptr %14, align 8
  %156 = load i32, ptr @hf_isis_lsp_sl_sub_tlv_label_20, align 4
  %157 = load ptr, ptr %7, align 8
  %158 = load i32, ptr %17, align 4
  %159 = add i32 %158, 2
  %160 = load i32, ptr %15, align 4
  %161 = add i32 %159, %160
  %162 = load i32, ptr %20, align 4
  %163 = call ptr @proto_tree_add_item(ptr noundef %155, i32 noundef %156, ptr noundef %157, i32 noundef %161, i32 noundef %162, i32 noundef 0)
  br label %183

164:                                              ; preds = %152
  %165 = load ptr, ptr %14, align 8
  %166 = load i32, ptr @hf_isis_lsp_sl_sub_tlv_label_32, align 4
  %167 = load ptr, ptr %7, align 8
  %168 = load i32, ptr %17, align 4
  %169 = add i32 %168, 2
  %170 = load i32, ptr %15, align 4
  %171 = add i32 %169, %170
  %172 = load i32, ptr %20, align 4
  %173 = call ptr @proto_tree_add_item(ptr noundef %165, i32 noundef %166, ptr noundef %167, i32 noundef %171, i32 noundef %172, i32 noundef 0)
  br label %183

174:                                              ; preds = %152
  %175 = load ptr, ptr %9, align 8
  %176 = load ptr, ptr %8, align 8
  %177 = load ptr, ptr %7, align 8
  %178 = load i32, ptr %17, align 4
  %179 = add i32 %178, 2
  %180 = load i32, ptr %15, align 4
  %181 = add i32 %179, %180
  %182 = call ptr (ptr, ptr, ptr, ptr, i32, i32, ptr, ...) @proto_tree_add_expert_format(ptr noundef %175, ptr noundef %176, ptr noundef @ei_isis_lsp_malformed_subtlv, ptr noundef %177, i32 noundef %181, i32 noundef -1, ptr noundef @.str.926)
  br label %183

183:                                              ; preds = %174, %164, %154
  br label %250

184:                                              ; preds = %109
  %185 = load ptr, ptr %14, align 8
  %186 = load ptr, ptr %7, align 8
  %187 = load i32, ptr %17, align 4
  %188 = add i32 %187, 2
  %189 = load i32, ptr %15, align 4
  %190 = add i32 %188, %189
  %191 = load i32, ptr @hf_isis_lsp_sl_sub_tlv_flags, align 4
  %192 = load i32, ptr @ett_isis_lsp_sl_sub_tlv_flags, align 4
  %193 = call ptr @proto_tree_add_bitmask(ptr noundef %185, ptr noundef %186, i32 noundef %190, i32 noundef %191, i32 noundef %192, ptr noundef @dissect_isis_lsp_clv_sid_label_binding.lsp_sl_sub_tlv_flags, i32 noundef 0)
  %194 = load ptr, ptr %14, align 8
  %195 = load i32, ptr @hf_isis_lsp_sl_sub_tlv_algorithm, align 4
  %196 = load ptr, ptr %7, align 8
  %197 = load i32, ptr %17, align 4
  %198 = add i32 %197, 2
  %199 = load i32, ptr %15, align 4
  %200 = add i32 %198, %199
  %201 = add i32 %200, 1
  %202 = call ptr @proto_tree_add_item(ptr noundef %194, i32 noundef %195, ptr noundef %196, i32 noundef %201, i32 noundef 1, i32 noundef 0)
  %203 = load i32, ptr %20, align 4
  %204 = sub i32 %203, 2
  switch i32 %204, label %229 [
    i32 3, label %205
    i32 4, label %217
  ]

205:                                              ; preds = %184
  %206 = load ptr, ptr %14, align 8
  %207 = load i32, ptr @hf_isis_lsp_sl_sub_tlv_label_20, align 4
  %208 = load ptr, ptr %7, align 8
  %209 = load i32, ptr %17, align 4
  %210 = add i32 %209, 2
  %211 = load i32, ptr %15, align 4
  %212 = add i32 %210, %211
  %213 = add i32 %212, 2
  %214 = load i32, ptr %20, align 4
  %215 = sub i32 %214, 2
  %216 = call ptr @proto_tree_add_item(ptr noundef %206, i32 noundef %207, ptr noundef %208, i32 noundef %213, i32 noundef %215, i32 noundef 0)
  br label %239

217:                                              ; preds = %184
  %218 = load ptr, ptr %14, align 8
  %219 = load i32, ptr @hf_isis_lsp_sl_sub_tlv_label_32, align 4
  %220 = load ptr, ptr %7, align 8
  %221 = load i32, ptr %17, align 4
  %222 = add i32 %221, 2
  %223 = load i32, ptr %15, align 4
  %224 = add i32 %222, %223
  %225 = add i32 %224, 2
  %226 = load i32, ptr %20, align 4
  %227 = sub i32 %226, 2
  %228 = call ptr @proto_tree_add_item(ptr noundef %218, i32 noundef %219, ptr noundef %220, i32 noundef %225, i32 noundef %227, i32 noundef 0)
  br label %239

229:                                              ; preds = %184
  %230 = load ptr, ptr %9, align 8
  %231 = load ptr, ptr %8, align 8
  %232 = load ptr, ptr %7, align 8
  %233 = load i32, ptr %17, align 4
  %234 = add i32 %233, 2
  %235 = load i32, ptr %15, align 4
  %236 = add i32 %234, %235
  %237 = add i32 %236, 2
  %238 = call ptr (ptr, ptr, ptr, ptr, i32, i32, ptr, ...) @proto_tree_add_expert_format(ptr noundef %230, ptr noundef %231, ptr noundef @ei_isis_lsp_malformed_subtlv, ptr noundef %232, i32 noundef %237, i32 noundef -1, ptr noundef @.str.926)
  br label %239

239:                                              ; preds = %229, %217, %205
  br label %250

240:                                              ; preds = %109
  %241 = load ptr, ptr %9, align 8
  %242 = load ptr, ptr %8, align 8
  %243 = load ptr, ptr %7, align 8
  %244 = load i32, ptr %17, align 4
  %245 = add i32 %244, 2
  %246 = load i32, ptr %15, align 4
  %247 = add i32 %245, %246
  %248 = load i32, ptr %19, align 4
  %249 = call ptr (ptr, ptr, ptr, ptr, i32, i32, ptr, ...) @proto_tree_add_expert_format(ptr noundef %241, ptr noundef %242, ptr noundef @ei_isis_lsp_malformed_subtlv, ptr noundef %243, i32 noundef %247, i32 noundef -1, ptr noundef @.str.927, i32 noundef %248)
  br label %250

250:                                              ; preds = %240, %239, %183
  %251 = load i32, ptr %20, align 4
  %252 = add i32 %251, 2
  %253 = load i32, ptr %17, align 4
  %254 = add i32 %253, %252
  store i32 %254, ptr %17, align 4
  br label %105, !llvm.loop !20

255:                                              ; preds = %105
  store i32 0, ptr %21, align 4
  br label %256

256:                                              ; preds = %255, %24
  call void @llvm.lifetime.end.p0(i64 4, ptr %20) #4
  call void @llvm.lifetime.end.p0(i64 4, ptr %19) #4
  call void @llvm.lifetime.end.p0(i64 1, ptr %18) #4
  call void @llvm.lifetime.end.p0(i64 4, ptr %17) #4
  call void @llvm.lifetime.end.p0(i64 4, ptr %16) #4
  call void @llvm.lifetime.end.p0(i64 4, ptr %15) #4
  call void @llvm.lifetime.end.p0(i64 8, ptr %14) #4
  call void @llvm.lifetime.end.p0(i64 8, ptr %13) #4
  %257 = load i32, ptr %21, align 4
  switch i32 %257, label %259 [
    i32 0, label %258
    i32 1, label %258
  ]

258:                                              ; preds = %256, %256
  ret void

259:                                              ; preds = %256
  unreachable
}