; Function Attrs: null_pointer_is_valid sspstrong uwtable
define internal void @dissect_isis_lsp_clv_sid_label_binding(ptr noundef %0, ptr noundef %1, ptr noundef %2, i32 noundef %3, ptr readnone captures(none) %4, i32 noundef %5) #0 {
  %7 = icmp slt i32 %5, 1
  br i1 %7, label %.loopexit, label %8

8:                                                ; preds = %6
  %9 = load i32, ptr @hf_isis_lsp_sl_binding_flags, align 4
  %10 = load i32, ptr @ett_isis_lsp_sl_flags, align 4
  %11 = tail call ptr @proto_tree_add_bitmask(ptr noundef %2, ptr noundef %0, i32 noundef %3, i32 noundef %9, i32 noundef %10, ptr noundef nonnull @dissect_isis_lsp_clv_sid_label_binding.lsp_sl_flags, i32 noundef 0)
  %12 = add i32 %3, 1
  %13 = load i32, ptr @hf_isis_lsp_sl_binding_weight, align 4
  %14 = tail call ptr @proto_tree_add_item(ptr noundef %2, i32 noundef %13, ptr noundef %0, i32 noundef %12, i32 noundef 1, i32 noundef 0)
  %15 = add i32 %3, 2
  %16 = load i32, ptr @hf_isis_lsp_sl_binding_range, align 4
  %17 = tail call ptr @proto_tree_add_item(ptr noundef %2, i32 noundef %16, ptr noundef %0, i32 noundef %15, i32 noundef 2, i32 noundef 0)
  %18 = add i32 %3, 4
  %19 = load i32, ptr @hf_isis_lsp_sl_binding_prefix_length, align 4
  %20 = tail call ptr @proto_tree_add_item(ptr noundef %2, i32 noundef %19, ptr noundef %0, i32 noundef %18, i32 noundef 1, i32 noundef 0)
  %21 = tail call zeroext i8 @tvb_get_uint8(ptr noundef %0, i32 noundef %18)
  %22 = add i32 %3, 5
  %23 = zext i8 %21 to i32
  switch i8 %21, label %30 [
    i8 32, label %24
    i8 -128, label %27
  ]

24:                                               ; preds = %8
  %25 = load i32, ptr @hf_isis_lsp_sl_binding_fec_prefix_ipv4, align 4
  %26 = tail call ptr @proto_tree_add_item(ptr noundef %2, i32 noundef %25, ptr noundef %0, i32 noundef %22, i32 noundef 4, i32 noundef 0)
  br label %32

27:                                               ; preds = %8
  %28 = load i32, ptr @hf_isis_lsp_sl_binding_fec_prefix_ipv6, align 4
  %29 = tail call ptr @proto_tree_add_item(ptr noundef %2, i32 noundef %28, ptr noundef %0, i32 noundef %22, i32 noundef 16, i32 noundef 0)
  br label %32

30:                                               ; preds = %8
  %31 = tail call ptr (ptr, ptr, ptr, ptr, i32, i32, ptr, ...) @proto_tree_add_expert_format(ptr noundef %2, ptr noundef %1, ptr noundef nonnull @ei_isis_lsp_malformed_subtlv, ptr noundef %0, i32 noundef %22, i32 noundef -1, ptr noundef nonnull @.str.923, i32 noundef %23)
  br label %32

32:                                               ; preds = %27, %30, %24
  %33 = lshr i32 %23, 3
  %34 = add i32 %33, %22
  %.neg116 = add nsw i32 %5, -5
  %35 = sub nsw i32 %.neg116, %33
  %36 = icmp sgt i32 %35, 0
  br i1 %36, label %.lr.ph, label %.loopexit

.lr.ph:                                           ; preds = %32
  %37 = add i32 %34, 1
  %38 = add i32 %34, 2
  br label %39

39:                                               ; preds = %.lr.ph, %90
  %.0117 = phi i32 [ 0, %.lr.ph ], [ %91, %90 ]
  %40 = add i32 %.0117, %34
  %41 = tail call zeroext i8 @tvb_get_uint8(ptr noundef %0, i32 noundef %40)
  %42 = zext i8 %41 to i32
  %43 = add i32 %37, %.0117
  %44 = tail call zeroext i8 @tvb_get_uint8(ptr noundef %0, i32 noundef %43)
  %45 = zext i8 %44 to i32
  %46 = load i32, ptr @hf_isis_lsp_sl_sub_tlv, align 4
  %47 = add nuw nsw i32 %45, 2
  %48 = tail call ptr @proto_tree_add_item(ptr noundef %2, i32 noundef %46, ptr noundef %0, i32 noundef %34, i32 noundef %47, i32 noundef 0)
  %49 = tail call ptr @val_to_str_const(i32 noundef %42, ptr noundef nonnull @isis_lsp_sl_sub_tlv_vals, ptr noundef nonnull @.str.925)
  tail call void (ptr, ptr, ...) @proto_item_append_text(ptr noundef %48, ptr noundef nonnull @.str.924, ptr noundef %49)
  %50 = load i32, ptr @ett_isis_lsp_sl_sub_tlv, align 4
  %51 = tail call ptr @proto_item_add_subtree(ptr noundef %48, i32 noundef %50)
  %52 = load i32, ptr @hf_isis_lsp_sl_sub_tlv_type, align 4
  %53 = tail call ptr @proto_tree_add_item(ptr noundef %51, i32 noundef %52, ptr noundef %0, i32 noundef %40, i32 noundef 1, i32 noundef 0)
  %54 = load i32, ptr @hf_isis_lsp_sl_sub_tlv_length, align 4
  %55 = tail call ptr @proto_tree_add_item(ptr noundef %51, i32 noundef %54, ptr noundef %0, i32 noundef %43, i32 noundef 1, i32 noundef 0)
  switch i8 %41, label %87 [
    i8 1, label %56
    i8 3, label %68
  ]

56:                                               ; preds = %39
  switch i8 %44, label %65 [
    i8 3, label %57
    i8 4, label %61
  ]

57:                                               ; preds = %56
  %58 = load i32, ptr @hf_isis_lsp_sl_sub_tlv_label_20, align 4
  %59 = add i32 %38, %.0117
  %60 = tail call ptr @proto_tree_add_item(ptr noundef %51, i32 noundef %58, ptr noundef %0, i32 noundef %59, i32 noundef 3, i32 noundef 0)
  br label %90

61:                                               ; preds = %56
  %62 = load i32, ptr @hf_isis_lsp_sl_sub_tlv_label_32, align 4
  %63 = add i32 %38, %.0117
  %64 = tail call ptr @proto_tree_add_item(ptr noundef %51, i32 noundef %62, ptr noundef %0, i32 noundef %63, i32 noundef 4, i32 noundef 0)
  br label %90

65:                                               ; preds = %56
  %66 = add i32 %38, %.0117
  %67 = tail call ptr (ptr, ptr, ptr, ptr, i32, i32, ptr, ...) @proto_tree_add_expert_format(ptr noundef %2, ptr noundef %1, ptr noundef nonnull @ei_isis_lsp_malformed_subtlv, ptr noundef %0, i32 noundef %66, i32 noundef -1, ptr noundef nonnull @.str.926)
  br label %90

68:                                               ; preds = %39
  %69 = add i32 %38, %.0117
  %70 = load i32, ptr @hf_isis_lsp_sl_sub_tlv_flags, align 4
  %71 = load i32, ptr @ett_isis_lsp_sl_sub_tlv_flags, align 4
  %72 = tail call ptr @proto_tree_add_bitmask(ptr noundef %51, ptr noundef %0, i32 noundef %69, i32 noundef %70, i32 noundef %71, ptr noundef nonnull @dissect_isis_lsp_clv_sid_label_binding.lsp_sl_sub_tlv_flags, i32 noundef 0)
  %73 = load i32, ptr @hf_isis_lsp_sl_sub_tlv_algorithm, align 4
  %74 = add i32 %69, 1
  %75 = tail call ptr @proto_tree_add_item(ptr noundef %51, i32 noundef %73, ptr noundef %0, i32 noundef %74, i32 noundef 1, i32 noundef 0)
  switch i8 %44, label %84 [
    i8 5, label %76
    i8 6, label %80
  ]

76:                                               ; preds = %68
  %77 = load i32, ptr @hf_isis_lsp_sl_sub_tlv_label_20, align 4
  %78 = add i32 %69, 2
  %79 = tail call ptr @proto_tree_add_item(ptr noundef %51, i32 noundef %77, ptr noundef %0, i32 noundef %78, i32 noundef 3, i32 noundef 0)
  br label %90

80:                                               ; preds = %68
  %81 = load i32, ptr @hf_isis_lsp_sl_sub_tlv_label_32, align 4
  %82 = add i32 %69, 2
  %83 = tail call ptr @proto_tree_add_item(ptr noundef %51, i32 noundef %81, ptr noundef %0, i32 noundef %82, i32 noundef 4, i32 noundef 0)
  br label %90

84:                                               ; preds = %68
  %85 = add i32 %69, 2
  %86 = tail call ptr (ptr, ptr, ptr, ptr, i32, i32, ptr, ...) @proto_tree_add_expert_format(ptr noundef %2, ptr noundef %1, ptr noundef nonnull @ei_isis_lsp_malformed_subtlv, ptr noundef %0, i32 noundef %85, i32 noundef -1, ptr noundef nonnull @.str.926)
  br label %90

87:                                               ; preds = %39
  %88 = add i32 %38, %.0117
  %89 = tail call ptr (ptr, ptr, ptr, ptr, i32, i32, ptr, ...) @proto_tree_add_expert_format(ptr noundef %2, ptr noundef %1, ptr noundef nonnull @ei_isis_lsp_malformed_subtlv, ptr noundef %0, i32 noundef %88, i32 noundef -1, ptr noundef nonnull @.str.927, i32 noundef %42)
  br label %90

90:                                               ; preds = %76, %80, %84, %57, %61, %65, %87
  %91 = add i32 %47, %.0117
  %92 = icmp slt i32 %91, %35
  br i1 %92, label %39, label %.loopexit, !llvm.loop !20

.loopexit:                                        ; preds = %90, %32, %6
  ret void
}